cnumpy.core.multiarray
_reconstruct
p1
(cnumpy
ndarray
p2
(I0
tS'b'
tRp3
(I1
(I1800
tcnumpy
dtype
p4
(S'O8'
I0
I1
tRp5
(I3
S'|'
NNNI-1
I-1
I63
tbI00
(lp6
(dp7
S'count'
p8
I0
sS'total_reward'
p9
I0
sa(dp10
g8
I0
sg9
I0
sa(dp11
g8
I0
sg9
I0
sa(dp12
g8
I0
sg9
I0
sa(dp13
g8
I0
sg9
I0
sa(dp14
g8
I0
sg9
I0
sa(dp15
g8
I0
sg9
I0
sa(dp16
g8
I0
sg9
I0
sa(dp17
g8
I0
sg9
I0
sa(dp18
g8
I0
sg9
I0
sa(dp19
g8
I0
sg9
I0
sa(dp20
g8
I0
sg9
I0
sa(dp21
g8
I0
sg9
I0
sa(dp22
g8
I0
sg9
I0
sa(dp23
g8
I0
sg9
I0
sa(dp24
g8
I0
sg9
I0
sa(dp25
g8
I0
sg9
I0
sa(dp26
g8
I0
sg9
I0
sa(dp27
g8
I0
sg9
I0
sa(dp28
g8
I0
sg9
I0
sa(dp29
g8
I0
sg9
I0
sa(dp30
g8
I0
sg9
I0
sa(dp31
g8
I0
sg9
I0
sa(dp32
g8
I0
sg9
I0
sa(dp33
g8
I0
sg9
I0
sa(dp34
g8
I0
sg9
I0
sa(dp35
g8
I0
sg9
I0
sa(dp36
g8
I0
sg9
I0
sa(dp37
g8
I0
sg9
I0
sa(dp38
g8
I0
sg9
I0
sa(dp39
g8
I0
sg9
I0
sa(dp40
g8
I0
sg9
I0
sa(dp41
g8
I0
sg9
I0
sa(dp42
g8
I0
sg9
I0
sa(dp43
g8
I0
sg9
I0
sa(dp44
g8
I0
sg9
I0
sa(dp45
g8
I0
sg9
I0
sa(dp46
g8
I0
sg9
I0
sa(dp47
g8
I0
sg9
I0
sa(dp48
g8
I0
sg9
I0
sa(dp49
g8
I0
sg9
I0
sa(dp50
g8
I0
sg9
I0
sa(dp51
g8
I0
sg9
I0
sa(dp52
g8
I0
sg9
I0
sa(dp53
g8
I0
sg9
I0
sa(dp54
g8
I0
sg9
I0
sa(dp55
g8
I0
sg9
I0
sa(dp56
g8
I0
sg9
I0
sa(dp57
g8
I0
sg9
I0
sa(dp58
g8
I0
sg9
I0
sa(dp59
g8
I0
sg9
I0
sa(dp60
g8
I0
sg9
I0
sa(dp61
g8
I0
sg9
I0
sa(dp62
g8
I0
sg9
I0
sa(dp63
g8
I0
sg9
I0
sa(dp64
g8
I0
sg9
I0
sa(dp65
g8
I0
sg9
I0
sa(dp66
g8
I0
sg9
I0
sa(dp67
g8
I0
sg9
I0
sa(dp68
g8
I0
sg9
I0
sa(dp69
g8
I0
sg9
I0
sa(dp70
g8
I0
sg9
I0
sa(dp71
g8
I0
sg9
I0
sa(dp72
g8
I0
sg9
I0
sa(dp73
g8
I0
sg9
I0
sa(dp74
g8
I0
sg9
I0
sa(dp75
g8
I0
sg9
I0
sa(dp76
g8
I0
sg9
I0
sa(dp77
g8
I0
sg9
I0
sa(dp78
g8
I0
sg9
I0
sa(dp79
g8
I0
sg9
I0
sa(dp80
g8
I0
sg9
I0
sa(dp81
g8
I0
sg9
I0
sa(dp82
g8
I0
sg9
I0
sa(dp83
g8
I0
sg9
I0
sa(dp84
g8
I0
sg9
I0
sa(dp85
g8
I0
sg9
I0
sa(dp86
g8
I0
sg9
I0
sa(dp87
g8
I0
sg9
I0
sa(dp88
g8
I0
sg9
I0
sa(dp89
g8
I0
sg9
I0
sa(dp90
g8
I0
sg9
I0
sa(dp91
g8
I0
sg9
I0
sa(dp92
g8
I0
sg9
I0
sa(dp93
g8
I0
sg9
I0
sa(dp94
g8
I0
sg9
I0
sa(dp95
g8
I0
sg9
I0
sa(dp96
g8
I0
sg9
I0
sa(dp97
g8
I0
sg9
I0
sa(dp98
g8
I0
sg9
I0
sa(dp99
g8
I0
sg9
I0
sa(dp100
g8
I0
sg9
I0
sa(dp101
g8
I0
sg9
I0
sa(dp102
g8
I0
sg9
I0
sa(dp103
g8
I0
sg9
I0
sa(dp104
g8
I0
sg9
I0
sa(dp105
g8
I0
sg9
I0
sa(dp106
g8
I0
sg9
I0
sa(dp107
g8
I0
sg9
I0
sa(dp108
g8
I0
sg9
I0
sa(dp109
g8
I0
sg9
I0
sa(dp110
g8
I0
sg9
I0
sa(dp111
g8
I0
sg9
I0
sa(dp112
g8
I0
sg9
I0
sa(dp113
g8
I0
sg9
I0
sa(dp114
g8
I0
sg9
I0
sa(dp115
g8
I0
sg9
I0
sa(dp116
g8
I0
sg9
I0
sa(dp117
g8
I0
sg9
I0
sa(dp118
g8
I0
sg9
I0
sa(dp119
g8
I0
sg9
I0
sa(dp120
g8
I0
sg9
I0
sa(dp121
g8
I0
sg9
I0
sa(dp122
g8
I0
sg9
I0
sa(dp123
g8
I0
sg9
I0
sa(dp124
g8
I0
sg9
I0
sa(dp125
g8
I0
sg9
I0
sa(dp126
g8
I0
sg9
I0
sa(dp127
g8
I0
sg9
I0
sa(dp128
g8
I0
sg9
I0
sa(dp129
g8
I0
sg9
I0
sa(dp130
g8
I0
sg9
I0
sa(dp131
g8
I0
sg9
I0
sa(dp132
g8
I0
sg9
I0
sa(dp133
g8
I0
sg9
I0
sa(dp134
g8
I0
sg9
I0
sa(dp135
g8
I0
sg9
I0
sa(dp136
g8
I0
sg9
I0
sa(dp137
g8
I0
sg9
I0
sa(dp138
g8
I0
sg9
I0
sa(dp139
g8
I0
sg9
I0
sa(dp140
g8
I0
sg9
I0
sa(dp141
g8
I0
sg9
I0
sa(dp142
g8
I0
sg9
I0
sa(dp143
g8
I0
sg9
I0
sa(dp144
g8
I0
sg9
I0
sa(dp145
g8
I0
sg9
I0
sa(dp146
g8
I0
sg9
I0
sa(dp147
g8
I0
sg9
I0
sa(dp148
g8
I0
sg9
I0
sa(dp149
g8
I0
sg9
I0
sa(dp150
g8
I0
sg9
I0
sa(dp151
g8
I0
sg9
I0
sa(dp152
g8
I0
sg9
I0
sa(dp153
g8
I0
sg9
I0
sa(dp154
g8
I0
sg9
I0
sa(dp155
g8
I0
sg9
I0
sa(dp156
g8
I0
sg9
I0
sa(dp157
g8
I0
sg9
I0
sa(dp158
g8
I0
sg9
I0
sa(dp159
g8
I0
sg9
I0
sa(dp160
g8
I0
sg9
I0
sa(dp161
g8
I0
sg9
I0
sa(dp162
g8
I0
sg9
I0
sa(dp163
g8
I0
sg9
I0
sa(dp164
g8
I0
sg9
I0
sa(dp165
g8
I0
sg9
I0
sa(dp166
g8
I0
sg9
I0
sa(dp167
g8
I0
sg9
I0
sa(dp168
g8
I0
sg9
I0
sa(dp169
g8
I0
sg9
I0
sa(dp170
g8
I0
sg9
I0
sa(dp171
g8
I0
sg9
I0
sa(dp172
g8
I0
sg9
I0
sa(dp173
g8
I0
sg9
I0
sa(dp174
g8
I0
sg9
I0
sa(dp175
g8
I0
sg9
I0
sa(dp176
g8
I0
sg9
I0
sa(dp177
g8
I0
sg9
I0
sa(dp178
g8
I0
sg9
I0
sa(dp179
g8
I0
sg9
I0
sa(dp180
g8
I0
sg9
I0
sa(dp181
g8
I0
sg9
I0
sa(dp182
g8
I0
sg9
I0
sa(dp183
g8
I0
sg9
I0
sa(dp184
g8
I0
sg9
I0
sa(dp185
g8
I0
sg9
I0
sa(dp186
g8
I0
sg9
I0
sa(dp187
g8
I0
sg9
I0
sa(dp188
g8
I0
sg9
I0
sa(dp189
g8
I0
sg9
I0
sa(dp190
g8
I0
sg9
I0
sa(dp191
g8
I0
sg9
I0
sa(dp192
g8
I0
sg9
I0
sa(dp193
g8
I0
sg9
I0
sa(dp194
g8
I0
sg9
I0
sa(dp195
g8
I0
sg9
I0
sa(dp196
g8
I0
sg9
I0
sa(dp197
g8
I0
sg9
I0
sa(dp198
g8
I0
sg9
I0
sa(dp199
g8
I0
sg9
I0
sa(dp200
g8
I0
sg9
I0
sa(dp201
g8
I0
sg9
I0
sa(dp202
g8
I0
sg9
I0
sa(dp203
g8
I0
sg9
I0
sa(dp204
g8
I0
sg9
I0
sa(dp205
g8
I0
sg9
I0
sa(dp206
g8
I0
sg9
I0
sa(dp207
g8
I0
sg9
I0
sa(dp208
g8
I0
sg9
I0
sa(dp209
g8
I0
sg9
I0
sa(dp210
g8
I0
sg9
I0
sa(dp211
g8
I0
sg9
I0
sa(dp212
g8
I0
sg9
I0
sa(dp213
g8
I0
sg9
I0
sa(dp214
g8
I0
sg9
I0
sa(dp215
g8
I0
sg9
I0
sa(dp216
g8
I0
sg9
I0
sa(dp217
g8
I0
sg9
I0
sa(dp218
g8
I0
sg9
I0
sa(dp219
g8
I0
sg9
I0
sa(dp220
g8
I0
sg9
I0
sa(dp221
g8
I0
sg9
I0
sa(dp222
g8
I0
sg9
I0
sa(dp223
g8
I0
sg9
I0
sa(dp224
g8
I0
sg9
I0
sa(dp225
g8
I0
sg9
I0
sa(dp226
g8
I0
sg9
I0
sa(dp227
g8
I0
sg9
I0
sa(dp228
g8
I0
sg9
I0
sa(dp229
g8
I0
sg9
I0
sa(dp230
g8
I0
sg9
I0
sa(dp231
g8
I0
sg9
I0
sa(dp232
g8
I0
sg9
I0
sa(dp233
g8
I0
sg9
I0
sa(dp234
g8
I0
sg9
I0
sa(dp235
g8
I0
sg9
I0
sa(dp236
g8
I0
sg9
I0
sa(dp237
g8
I0
sg9
I0
sa(dp238
g8
I0
sg9
I0
sa(dp239
g8
I0
sg9
I0
sa(dp240
g8
I0
sg9
I0
sa(dp241
g8
I0
sg9
I0
sa(dp242
g8
I0
sg9
I0
sa(dp243
g8
I0
sg9
I0
sa(dp244
g8
I0
sg9
I0
sa(dp245
g8
I0
sg9
I0
sa(dp246
g8
I0
sg9
I0
sa(dp247
g8
I0
sg9
I0
sa(dp248
g8
I0
sg9
I0
sa(dp249
g8
I0
sg9
I0
sa(dp250
g8
I0
sg9
I0
sa(dp251
g8
I0
sg9
I0
sa(dp252
g8
I0
sg9
I0
sa(dp253
g8
I0
sg9
I0
sa(dp254
g8
I0
sg9
I0
sa(dp255
g8
I0
sg9
I0
sa(dp256
g8
I0
sg9
I0
sa(dp257
g8
I0
sg9
I0
sa(dp258
g8
I0
sg9
I0
sa(dp259
g8
I0
sg9
I0
sa(dp260
g8
I0
sg9
I0
sa(dp261
g8
I0
sg9
I0
sa(dp262
g8
I0
sg9
I0
sa(dp263
g8
I0
sg9
I0
sa(dp264
g8
I0
sg9
I0
sa(dp265
g8
I0
sg9
I0
sa(dp266
g8
I0
sg9
I0
sa(dp267
g8
I0
sg9
I0
sa(dp268
g8
I0
sg9
I0
sa(dp269
g8
I0
sg9
I0
sa(dp270
g8
I0
sg9
I0
sa(dp271
g8
I0
sg9
I0
sa(dp272
g8
I0
sg9
I0
sa(dp273
g8
I0
sg9
I0
sa(dp274
g8
I0
sg9
I0
sa(dp275
g8
I0
sg9
I0
sa(dp276
g8
I0
sg9
I0
sa(dp277
g8
I0
sg9
I0
sa(dp278
g8
I0
sg9
I0
sa(dp279
g8
I0
sg9
I0
sa(dp280
g8
I0
sg9
I0
sa(dp281
g8
I0
sg9
I0
sa(dp282
g8
I0
sg9
I0
sa(dp283
g8
I0
sg9
I0
sa(dp284
g8
I0
sg9
I0
sa(dp285
g8
I0
sg9
I0
sa(dp286
g8
I0
sg9
I0
sa(dp287
g8
I0
sg9
I0
sa(dp288
g8
I0
sg9
I0
sa(dp289
g8
I0
sg9
I0
sa(dp290
g8
I0
sg9
I0
sa(dp291
g8
I0
sg9
I0
sa(dp292
g8
I0
sg9
I0
sa(dp293
g8
I0
sg9
I0
sa(dp294
g8
I0
sg9
I0
sa(dp295
g8
I0
sg9
I0
sa(dp296
g8
I0
sg9
I0
sa(dp297
g8
I0
sg9
I0
sa(dp298
g8
I0
sg9
I0
sa(dp299
g8
I0
sg9
I0
sa(dp300
g8
I0
sg9
I0
sa(dp301
g8
I0
sg9
I0
sa(dp302
g8
I0
sg9
I0
sa(dp303
g8
I0
sg9
I0
sa(dp304
g8
I0
sg9
I0
sa(dp305
g8
I0
sg9
I0
sa(dp306
g8
I0
sg9
I0
sa(dp307
g8
I0
sg9
I0
sa(dp308
g8
I0
sg9
I0
sa(dp309
g8
I0
sg9
I0
sa(dp310
g8
I0
sg9
I0
sa(dp311
g8
I0
sg9
I0
sa(dp312
g8
I0
sg9
I0
sa(dp313
g8
I0
sg9
I0
sa(dp314
g8
I0
sg9
I0
sa(dp315
g8
I0
sg9
I0
sa(dp316
g8
I0
sg9
I0
sa(dp317
g8
I0
sg9
I0
sa(dp318
g8
I0
sg9
I0
sa(dp319
g8
I0
sg9
I0
sa(dp320
g8
I0
sg9
I0
sa(dp321
g8
I0
sg9
I0
sa(dp322
g8
I0
sg9
I0
sa(dp323
g8
I0
sg9
I0
sa(dp324
g8
I0
sg9
I0
sa(dp325
g8
I0
sg9
I0
sa(dp326
g8
I0
sg9
I0
sa(dp327
g8
I0
sg9
I0
sa(dp328
g8
I0
sg9
I0
sa(dp329
g8
I0
sg9
I0
sa(dp330
g8
I0
sg9
I0
sa(dp331
g8
I0
sg9
I0
sa(dp332
g8
I0
sg9
I0
sa(dp333
g8
I0
sg9
I0
sa(dp334
g8
I0
sg9
I0
sa(dp335
g8
I0
sg9
I0
sa(dp336
g8
I0
sg9
I0
sa(dp337
g8
I0
sg9
I0
sa(dp338
g8
I0
sg9
I0
sa(dp339
g8
I0
sg9
I0
sa(dp340
g8
I0
sg9
I0
sa(dp341
g8
I0
sg9
I0
sa(dp342
g8
I0
sg9
I0
sa(dp343
g8
I0
sg9
I0
sa(dp344
g8
I0
sg9
I0
sa(dp345
g8
I0
sg9
I0
sa(dp346
g8
I0
sg9
I0
sa(dp347
g8
I0
sg9
I0
sa(dp348
g8
I0
sg9
I0
sa(dp349
g8
I0
sg9
I0
sa(dp350
g8
I0
sg9
I0
sa(dp351
g8
I0
sg9
I0
sa(dp352
g8
I0
sg9
I0
sa(dp353
g8
I0
sg9
I0
sa(dp354
g8
I0
sg9
I0
sa(dp355
g8
I0
sg9
I0
sa(dp356
g8
I0
sg9
I0
sa(dp357
g8
I0
sg9
I0
sa(dp358
g8
I0
sg9
I0
sa(dp359
g8
I0
sg9
I0
sa(dp360
g8
I0
sg9
I0
sa(dp361
g8
I0
sg9
I0
sa(dp362
g8
I0
sg9
I0
sa(dp363
g8
I0
sg9
I0
sa(dp364
g8
I0
sg9
I0
sa(dp365
g8
I0
sg9
I0
sa(dp366
g8
I0
sg9
I0
sa(dp367
g8
I0
sg9
I0
sa(dp368
g8
I0
sg9
I0
sa(dp369
g8
I0
sg9
I0
sa(dp370
g8
I0
sg9
I0
sa(dp371
g8
I0
sg9
I0
sa(dp372
g8
I0
sg9
I0
sa(dp373
g8
I0
sg9
I0
sa(dp374
g8
I0
sg9
I0
sa(dp375
g8
I0
sg9
I0
sa(dp376
g8
I0
sg9
I0
sa(dp377
g8
I0
sg9
I0
sa(dp378
g8
I0
sg9
I0
sa(dp379
g8
I0
sg9
I0
sa(dp380
g8
I0
sg9
I0
sa(dp381
g8
I0
sg9
I0
sa(dp382
g8
I0
sg9
I0
sa(dp383
g8
I0
sg9
I0
sa(dp384
g8
I0
sg9
I0
sa(dp385
g8
I0
sg9
I0
sa(dp386
g8
I0
sg9
I0
sa(dp387
g8
I0
sg9
I0
sa(dp388
g8
I0
sg9
I0
sa(dp389
g8
I0
sg9
I0
sa(dp390
g8
I0
sg9
I0
sa(dp391
g8
I0
sg9
I0
sa(dp392
g8
I0
sg9
I0
sa(dp393
g8
I0
sg9
I0
sa(dp394
g8
I0
sg9
I0
sa(dp395
g8
I0
sg9
I0
sa(dp396
g8
I0
sg9
I0
sa(dp397
g8
I0
sg9
I0
sa(dp398
g8
I0
sg9
I0
sa(dp399
g8
I0
sg9
I0
sa(dp400
g8
I0
sg9
I0
sa(dp401
g8
I0
sg9
I0
sa(dp402
g8
I0
sg9
I0
sa(dp403
g8
I0
sg9
I0
sa(dp404
g8
I0
sg9
I0
sa(dp405
g8
I0
sg9
I0
sa(dp406
g8
I0
sg9
I0
sa(dp407
g8
I0
sg9
I0
sa(dp408
g8
I0
sg9
I0
sa(dp409
g8
I0
sg9
I0
sa(dp410
g8
I0
sg9
I0
sa(dp411
g8
I0
sg9
I0
sa(dp412
g8
I0
sg9
I0
sa(dp413
g8
I0
sg9
I0
sa(dp414
g8
I0
sg9
I0
sa(dp415
g8
I0
sg9
I0
sa(dp416
g8
I0
sg9
I0
sa(dp417
g8
I0
sg9
I0
sa(dp418
g8
I0
sg9
I0
sa(dp419
g8
I0
sg9
I0
sa(dp420
g8
I0
sg9
I0
sa(dp421
g8
I0
sg9
I0
sa(dp422
g8
I0
sg9
I0
sa(dp423
g8
I0
sg9
I0
sa(dp424
g8
I0
sg9
I0
sa(dp425
g8
I0
sg9
I0
sa(dp426
g8
I0
sg9
I0
sa(dp427
g8
I0
sg9
I0
sa(dp428
g8
I0
sg9
I0
sa(dp429
g8
I0
sg9
I0
sa(dp430
g8
I0
sg9
I0
sa(dp431
g8
I0
sg9
I0
sa(dp432
g8
I0
sg9
I0
sa(dp433
g8
I0
sg9
I0
sa(dp434
g8
I0
sg9
I0
sa(dp435
g8
I0
sg9
I0
sa(dp436
g8
I0
sg9
I0
sa(dp437
g8
I0
sg9
I0
sa(dp438
g8
I0
sg9
I0
sa(dp439
g8
I0
sg9
I0
sa(dp440
g8
I0
sg9
I0
sa(dp441
g8
I0
sg9
I0
sa(dp442
g8
I0
sg9
I0
sa(dp443
g8
I0
sg9
I0
sa(dp444
g8
I0
sg9
I0
sa(dp445
g8
I0
sg9
I0
sa(dp446
g8
I0
sg9
I0
sa(dp447
g8
I0
sg9
I0
sa(dp448
g8
I0
sg9
I0
sa(dp449
g8
I0
sg9
I0
sa(dp450
g8
I0
sg9
I0
sa(dp451
g8
I0
sg9
I0
sa(dp452
g8
I0
sg9
I0
sa(dp453
g8
I0
sg9
I0
sa(dp454
g8
I0
sg9
I0
sa(dp455
g8
I0
sg9
I0
sa(dp456
g8
I0
sg9
I0
sa(dp457
g8
I0
sg9
I0
sa(dp458
g8
I0
sg9
I0
sa(dp459
g8
I0
sg9
I0
sa(dp460
g8
I0
sg9
I0
sa(dp461
g8
I0
sg9
I0
sa(dp462
g8
I0
sg9
I0
sa(dp463
g8
I0
sg9
I0
sa(dp464
g8
I0
sg9
I0
sa(dp465
g8
I0
sg9
I0
sa(dp466
g8
I0
sg9
I0
sa(dp467
g8
I0
sg9
I0
sa(dp468
g8
I0
sg9
I0
sa(dp469
g8
I0
sg9
I0
sa(dp470
g8
I0
sg9
I0
sa(dp471
g8
I0
sg9
I0
sa(dp472
g8
I0
sg9
I0
sa(dp473
g8
I0
sg9
I0
sa(dp474
g8
I0
sg9
I0
sa(dp475
g8
I0
sg9
I0
sa(dp476
g8
I0
sg9
I0
sa(dp477
g8
I0
sg9
I0
sa(dp478
g8
I0
sg9
I0
sa(dp479
g8
I0
sg9
I0
sa(dp480
g8
I0
sg9
I0
sa(dp481
g8
I0
sg9
I0
sa(dp482
g8
I0
sg9
I0
sa(dp483
g8
I0
sg9
I0
sa(dp484
g8
I0
sg9
I0
sa(dp485
g8
I0
sg9
I0
sa(dp486
g8
I0
sg9
I0
sa(dp487
g8
I0
sg9
I0
sa(dp488
g8
I0
sg9
I0
sa(dp489
g8
I0
sg9
I0
sa(dp490
g8
I0
sg9
I0
sa(dp491
g8
I0
sg9
I0
sa(dp492
g8
I0
sg9
I0
sa(dp493
g8
I0
sg9
I0
sa(dp494
g8
I0
sg9
I0
sa(dp495
g8
I0
sg9
I0
sa(dp496
g8
I0
sg9
I0
sa(dp497
g8
I0
sg9
I0
sa(dp498
g8
I0
sg9
I0
sa(dp499
g8
I0
sg9
I0
sa(dp500
g8
I0
sg9
I0
sa(dp501
g8
I0
sg9
I0
sa(dp502
g8
I0
sg9
I0
sa(dp503
g8
I0
sg9
I0
sa(dp504
g8
I0
sg9
I0
sa(dp505
g8
I0
sg9
I0
sa(dp506
g8
I0
sg9
I0
sa(dp507
g8
I0
sg9
I0
sa(dp508
g8
I0
sg9
I0
sa(dp509
g8
I0
sg9
I0
sa(dp510
g8
I0
sg9
I0
sa(dp511
g8
I0
sg9
I0
sa(dp512
g8
I0
sg9
I0
sa(dp513
g8
I0
sg9
I0
sa(dp514
g8
I0
sg9
I0
sa(dp515
g8
I0
sg9
I0
sa(dp516
g8
I0
sg9
I0
sa(dp517
g8
I0
sg9
I0
sa(dp518
g8
I0
sg9
I0
sa(dp519
g8
I0
sg9
I0
sa(dp520
g8
I0
sg9
I0
sa(dp521
g8
I0
sg9
I0
sa(dp522
g8
I0
sg9
I0
sa(dp523
g8
I0
sg9
I0
sa(dp524
g8
I0
sg9
I0
sa(dp525
g8
I0
sg9
I0
sa(dp526
g8
I0
sg9
I0
sa(dp527
g8
I0
sg9
I0
sa(dp528
g8
I0
sg9
I0
sa(dp529
g8
I0
sg9
I0
sa(dp530
g8
I0
sg9
I0
sa(dp531
g8
I0
sg9
I0
sa(dp532
g8
I0
sg9
I0
sa(dp533
g8
I0
sg9
I0
sa(dp534
g8
I0
sg9
I0
sa(dp535
g8
I0
sg9
I0
sa(dp536
g8
I0
sg9
I0
sa(dp537
g8
I0
sg9
I0
sa(dp538
g8
I0
sg9
I0
sa(dp539
g8
I0
sg9
I0
sa(dp540
g8
I0
sg9
I0
sa(dp541
g8
I0
sg9
I0
sa(dp542
g8
I0
sg9
I0
sa(dp543
g8
I0
sg9
I0
sa(dp544
g8
I0
sg9
I0
sa(dp545
g8
I0
sg9
I0
sa(dp546
g8
I0
sg9
I0
sa(dp547
g8
I0
sg9
I0
sa(dp548
g8
I0
sg9
I0
sa(dp549
g8
I0
sg9
I0
sa(dp550
g8
I0
sg9
I0
sa(dp551
g8
I0
sg9
I0
sa(dp552
g8
I0
sg9
I0
sa(dp553
g8
I0
sg9
I0
sa(dp554
g8
I0
sg9
I0
sa(dp555
g8
I0
sg9
I0
sa(dp556
g8
I0
sg9
I0
sa(dp557
g8
I0
sg9
I0
sa(dp558
g8
I0
sg9
I0
sa(dp559
g8
I0
sg9
I0
sa(dp560
g8
I0
sg9
I0
sa(dp561
g8
I0
sg9
I0
sa(dp562
g8
I0
sg9
I0
sa(dp563
g8
I0
sg9
I0
sa(dp564
g8
I0
sg9
I0
sa(dp565
g8
I0
sg9
I0
sa(dp566
g8
I0
sg9
I0
sa(dp567
g8
I0
sg9
I0
sa(dp568
g8
I0
sg9
I0
sa(dp569
g8
I0
sg9
I0
sa(dp570
g8
I0
sg9
I0
sa(dp571
g8
I0
sg9
I0
sa(dp572
g8
I0
sg9
I0
sa(dp573
g8
I0
sg9
I0
sa(dp574
g8
I0
sg9
I0
sa(dp575
g8
I0
sg9
I0
sa(dp576
g8
I0
sg9
I0
sa(dp577
g8
I0
sg9
I0
sa(dp578
g8
I0
sg9
I0
sa(dp579
g8
I0
sg9
I0
sa(dp580
g8
I0
sg9
I0
sa(dp581
g8
I0
sg9
I0
sa(dp582
g8
I0
sg9
I0
sa(dp583
g8
I0
sg9
I0
sa(dp584
g8
I0
sg9
I0
sa(dp585
g8
I0
sg9
I0
sa(dp586
g8
I0
sg9
I0
sa(dp587
g8
I0
sg9
I0
sa(dp588
g8
I0
sg9
I0
sa(dp589
g8
I0
sg9
I0
sa(dp590
g8
I0
sg9
I0
sa(dp591
g8
I0
sg9
I0
sa(dp592
g8
I0
sg9
I0
sa(dp593
g8
I0
sg9
I0
sa(dp594
g8
I0
sg9
I0
sa(dp595
g8
I0
sg9
I0
sa(dp596
g8
I0
sg9
I0
sa(dp597
g8
I0
sg9
I0
sa(dp598
g8
I0
sg9
I0
sa(dp599
g8
I0
sg9
I0
sa(dp600
g8
I0
sg9
I0
sa(dp601
g8
I0
sg9
I0
sa(dp602
g8
I0
sg9
I0
sa(dp603
g8
I0
sg9
I0
sa(dp604
g8
I0
sg9
I0
sa(dp605
g8
I0
sg9
I0
sa(dp606
g8
I0
sg9
I0
sa(dp607
g8
I0
sg9
I0
sa(dp608
g8
I0
sg9
I0
sa(dp609
g8
I0
sg9
I0
sa(dp610
g8
I0
sg9
I0
sa(dp611
g8
I0
sg9
I0
sa(dp612
g8
I0
sg9
I0
sa(dp613
g8
I0
sg9
I0
sa(dp614
g8
I0
sg9
I0
sa(dp615
g8
I0
sg9
I0
sa(dp616
g8
I0
sg9
I0
sa(dp617
g8
I0
sg9
I0
sa(dp618
g8
I0
sg9
I0
sa(dp619
g8
I0
sg9
I0
sa(dp620
g8
I0
sg9
I0
sa(dp621
g8
I0
sg9
I0
sa(dp622
g8
I0
sg9
I0
sa(dp623
g8
I0
sg9
I0
sa(dp624
g8
I0
sg9
I0
sa(dp625
g8
I0
sg9
I0
sa(dp626
g8
I0
sg9
I0
sa(dp627
g8
I0
sg9
I0
sa(dp628
g8
I0
sg9
I0
sa(dp629
g8
I0
sg9
I0
sa(dp630
g8
I0
sg9
I0
sa(dp631
g8
I0
sg9
I0
sa(dp632
g8
I0
sg9
I0
sa(dp633
g8
I0
sg9
I0
sa(dp634
g8
I0
sg9
I0
sa(dp635
g8
I0
sg9
I0
sa(dp636
g8
I0
sg9
I0
sa(dp637
g8
I0
sg9
I0
sa(dp638
g8
I0
sg9
I0
sa(dp639
g8
I0
sg9
I0
sa(dp640
g8
I0
sg9
I0
sa(dp641
g8
I0
sg9
I0
sa(dp642
g8
I0
sg9
I0
sa(dp643
g8
I0
sg9
I0
sa(dp644
g8
I0
sg9
I0
sa(dp645
g8
I0
sg9
I0
sa(dp646
g8
I0
sg9
I0
sa(dp647
g8
I0
sg9
I0
sa(dp648
g8
I0
sg9
I0
sa(dp649
g8
I0
sg9
I0
sa(dp650
g8
I0
sg9
I0
sa(dp651
g8
I0
sg9
I0
sa(dp652
g8
I0
sg9
I0
sa(dp653
g8
I0
sg9
I0
sa(dp654
g8
I0
sg9
I0
sa(dp655
g8
I0
sg9
I0
sa(dp656
g8
I0
sg9
I0
sa(dp657
g8
I0
sg9
I0
sa(dp658
g8
I0
sg9
I0
sa(dp659
g8
I0
sg9
I0
sa(dp660
g8
I0
sg9
I0
sa(dp661
g8
I0
sg9
I0
sa(dp662
g8
I0
sg9
I0
sa(dp663
g8
I0
sg9
I0
sa(dp664
g8
I0
sg9
I0
sa(dp665
g8
I0
sg9
I0
sa(dp666
g8
I0
sg9
I0
sa(dp667
g8
I0
sg9
I0
sa(dp668
g8
I0
sg9
I0
sa(dp669
g8
I0
sg9
I0
sa(dp670
g8
I0
sg9
I0
sa(dp671
g8
I0
sg9
I0
sa(dp672
g8
I0
sg9
I0
sa(dp673
g8
I0
sg9
I0
sa(dp674
g8
I0
sg9
I0
sa(dp675
g8
I0
sg9
I0
sa(dp676
g8
I0
sg9
I0
sa(dp677
g8
I0
sg9
I0
sa(dp678
g8
I0
sg9
I0
sa(dp679
g8
I0
sg9
I0
sa(dp680
g8
I0
sg9
I0
sa(dp681
g8
I0
sg9
I0
sa(dp682
g8
I0
sg9
I0
sa(dp683
g8
I0
sg9
I0
sa(dp684
g8
I0
sg9
I0
sa(dp685
g8
I0
sg9
I0
sa(dp686
g8
I0
sg9
I0
sa(dp687
g8
I0
sg9
I0
sa(dp688
g8
I0
sg9
I0
sa(dp689
g8
I0
sg9
I0
sa(dp690
g8
I0
sg9
I0
sa(dp691
g8
I0
sg9
I0
sa(dp692
g8
I0
sg9
I0
sa(dp693
g8
I0
sg9
I0
sa(dp694
g8
I0
sg9
I0
sa(dp695
g8
I0
sg9
I0
sa(dp696
g8
I0
sg9
I0
sa(dp697
g8
I0
sg9
I0
sa(dp698
g8
I0
sg9
I0
sa(dp699
g8
I0
sg9
I0
sa(dp700
g8
I0
sg9
I0
sa(dp701
g8
I0
sg9
I0
sa(dp702
g8
I0
sg9
I0
sa(dp703
g8
I0
sg9
I0
sa(dp704
g8
I0
sg9
I0
sa(dp705
g8
I0
sg9
I0
sa(dp706
g8
I0
sg9
I0
sa(dp707
g8
I0
sg9
I0
sa(dp708
g8
I0
sg9
I0
sa(dp709
g8
I0
sg9
I0
sa(dp710
g8
I0
sg9
I0
sa(dp711
g8
I0
sg9
I0
sa(dp712
g8
I0
sg9
I0
sa(dp713
g8
I0
sg9
I0
sa(dp714
g8
I0
sg9
I0
sa(dp715
g8
I0
sg9
I0
sa(dp716
g8
I0
sg9
I0
sa(dp717
g8
I0
sg9
I0
sa(dp718
g8
I0
sg9
I0
sa(dp719
g8
I0
sg9
I0
sa(dp720
g8
I0
sg9
I0
sa(dp721
g8
I0
sg9
I0
sa(dp722
g8
I0
sg9
I0
sa(dp723
g8
I0
sg9
I0
sa(dp724
g8
I0
sg9
I0
sa(dp725
g8
I0
sg9
I0
sa(dp726
g8
I0
sg9
I0
sa(dp727
g8
I0
sg9
I0
sa(dp728
g8
I0
sg9
I0
sa(dp729
g8
I0
sg9
I0
sa(dp730
g8
I0
sg9
I0
sa(dp731
g8
I0
sg9
I0
sa(dp732
g8
I0
sg9
I0
sa(dp733
g8
I0
sg9
I0
sa(dp734
g8
I0
sg9
I0
sa(dp735
g8
I0
sg9
I0
sa(dp736
g8
I0
sg9
I0
sa(dp737
g8
I0
sg9
I0
sa(dp738
g8
I0
sg9
I0
sa(dp739
g8
I0
sg9
I0
sa(dp740
g8
I0
sg9
I0
sa(dp741
g8
I0
sg9
I0
sa(dp742
g8
I0
sg9
I0
sa(dp743
g8
I0
sg9
I0
sa(dp744
g8
I0
sg9
I0
sa(dp745
g8
I0
sg9
I0
sa(dp746
g8
I0
sg9
I0
sa(dp747
g8
I0
sg9
I0
sa(dp748
g8
I0
sg9
I0
sa(dp749
g8
I0
sg9
I0
sa(dp750
g8
I0
sg9
I0
sa(dp751
g8
I0
sg9
I0
sa(dp752
g8
I0
sg9
I0
sa(dp753
g8
I0
sg9
I0
sa(dp754
g8
I0
sg9
I0
sa(dp755
g8
I0
sg9
I0
sa(dp756
g8
I0
sg9
I0
sa(dp757
g8
I0
sg9
I0
sa(dp758
g8
I0
sg9
I0
sa(dp759
g8
I0
sg9
I0
sa(dp760
g8
I0
sg9
I0
sa(dp761
g8
I0
sg9
I0
sa(dp762
g8
I0
sg9
I0
sa(dp763
g8
I0
sg9
I0
sa(dp764
g8
I0
sg9
I0
sa(dp765
g8
I0
sg9
I0
sa(dp766
g8
I0
sg9
I0
sa(dp767
g8
I0
sg9
I0
sa(dp768
g8
I0
sg9
I0
sa(dp769
g8
I0
sg9
I0
sa(dp770
g8
I0
sg9
I0
sa(dp771
g8
I0
sg9
I0
sa(dp772
g8
I0
sg9
I0
sa(dp773
g8
I0
sg9
I0
sa(dp774
g8
I0
sg9
I0
sa(dp775
g8
I0
sg9
I0
sa(dp776
g8
I0
sg9
I0
sa(dp777
g8
I0
sg9
I0
sa(dp778
g8
I0
sg9
I0
sa(dp779
g8
I0
sg9
I0
sa(dp780
g8
I0
sg9
I0
sa(dp781
g8
I0
sg9
I0
sa(dp782
g8
I0
sg9
I0
sa(dp783
g8
I0
sg9
I0
sa(dp784
g8
I0
sg9
I0
sa(dp785
g8
I0
sg9
I0
sa(dp786
g8
I0
sg9
I0
sa(dp787
g8
I0
sg9
I0
sa(dp788
g8
I0
sg9
I0
sa(dp789
g8
I0
sg9
I0
sa(dp790
g8
I0
sg9
I0
sa(dp791
g8
I0
sg9
I0
sa(dp792
g8
I0
sg9
I0
sa(dp793
g8
I0
sg9
I0
sa(dp794
g8
I0
sg9
I0
sa(dp795
g8
I0
sg9
I0
sa(dp796
g8
I0
sg9
I0
sa(dp797
g8
I0
sg9
I0
sa(dp798
g8
I0
sg9
I0
sa(dp799
g8
I0
sg9
I0
sa(dp800
g8
I0
sg9
I0
sa(dp801
g8
I0
sg9
I0
sa(dp802
g8
I0
sg9
I0
sa(dp803
g8
I0
sg9
I0
sa(dp804
g8
I0
sg9
I0
sa(dp805
g8
I0
sg9
I0
sa(dp806
g8
I0
sg9
I0
sa(dp807
g8
I0
sg9
I0
sa(dp808
g8
I0
sg9
I0
sa(dp809
g8
I0
sg9
I0
sa(dp810
g8
I0
sg9
I0
sa(dp811
g8
I0
sg9
I0
sa(dp812
g8
I0
sg9
I0
sa(dp813
g8
I0
sg9
I0
sa(dp814
g8
I0
sg9
I0
sa(dp815
g8
I0
sg9
I0
sa(dp816
g8
I0
sg9
I0
sa(dp817
g8
I0
sg9
I0
sa(dp818
g8
I0
sg9
I0
sa(dp819
g8
I0
sg9
I0
sa(dp820
g8
I0
sg9
I0
sa(dp821
g8
I0
sg9
I0
sa(dp822
g8
I0
sg9
I0
sa(dp823
g8
I0
sg9
I0
sa(dp824
g8
I0
sg9
I0
sa(dp825
g8
I0
sg9
I0
sa(dp826
g8
I0
sg9
I0
sa(dp827
g8
I0
sg9
I0
sa(dp828
g8
I0
sg9
I0
sa(dp829
g8
I0
sg9
I0
sa(dp830
g8
I0
sg9
I0
sa(dp831
g8
I0
sg9
I0
sa(dp832
g8
I0
sg9
I0
sa(dp833
g8
I0
sg9
I0
sa(dp834
g8
I0
sg9
I0
sa(dp835
g8
I0
sg9
I0
sa(dp836
g8
I0
sg9
I0
sa(dp837
g8
I0
sg9
I0
sa(dp838
g8
I0
sg9
I0
sa(dp839
g8
I0
sg9
I0
sa(dp840
g8
I0
sg9
I0
sa(dp841
g8
I0
sg9
I0
sa(dp842
g8
I0
sg9
I0
sa(dp843
g8
I0
sg9
I0
sa(dp844
g8
I0
sg9
I0
sa(dp845
g8
I0
sg9
I0
sa(dp846
g8
I0
sg9
I0
sa(dp847
g8
I0
sg9
I0
sa(dp848
g8
I0
sg9
I0
sa(dp849
g8
I0
sg9
I0
sa(dp850
g8
I0
sg9
I0
sa(dp851
g8
I0
sg9
I0
sa(dp852
g8
I0
sg9
I0
sa(dp853
g8
I0
sg9
I0
sa(dp854
g8
I0
sg9
I0
sa(dp855
g8
I0
sg9
I0
sa(dp856
g8
I0
sg9
I0
sa(dp857
g8
I0
sg9
I0
sa(dp858
g8
I0
sg9
I0
sa(dp859
g8
I0
sg9
I0
sa(dp860
g8
I0
sg9
I0
sa(dp861
g8
I0
sg9
I0
sa(dp862
g8
I0
sg9
I0
sa(dp863
g8
I0
sg9
I0
sa(dp864
g8
I0
sg9
I0
sa(dp865
g8
I0
sg9
I0
sa(dp866
g8
I0
sg9
I0
sa(dp867
g8
I0
sg9
I0
sa(dp868
g8
I0
sg9
I0
sa(dp869
g8
I0
sg9
I0
sa(dp870
g8
I0
sg9
I0
sa(dp871
g8
I0
sg9
I0
sa(dp872
g8
I0
sg9
I0
sa(dp873
g8
I0
sg9
I0
sa(dp874
g8
I0
sg9
I0
sa(dp875
g8
I0
sg9
I0
sa(dp876
g8
I0
sg9
I0
sa(dp877
g8
I0
sg9
I0
sa(dp878
g8
I0
sg9
I0
sa(dp879
g8
I0
sg9
I0
sa(dp880
g8
I0
sg9
I0
sa(dp881
g8
I0
sg9
I0
sa(dp882
g8
I0
sg9
I0
sa(dp883
g8
I0
sg9
I0
sa(dp884
g8
I0
sg9
I0
sa(dp885
g8
I0
sg9
I0
sa(dp886
g8
I0
sg9
I0
sa(dp887
g8
I0
sg9
I0
sa(dp888
g8
I0
sg9
I0
sa(dp889
g8
I0
sg9
I0
sa(dp890
g8
I0
sg9
I0
sa(dp891
g8
I0
sg9
I0
sa(dp892
g8
I0
sg9
I0
sa(dp893
g8
I0
sg9
I0
sa(dp894
g8
I0
sg9
I0
sa(dp895
g8
I0
sg9
I0
sa(dp896
g8
I0
sg9
I0
sa(dp897
g8
I0
sg9
I0
sa(dp898
g8
I0
sg9
I0
sa(dp899
g8
I0
sg9
I0
sa(dp900
g8
I0
sg9
I0
sa(dp901
g8
I0
sg9
I0
sa(dp902
g8
I0
sg9
I0
sa(dp903
g8
I0
sg9
I0
sa(dp904
g8
I0
sg9
I0
sa(dp905
g8
I0
sg9
I0
sa(dp906
g8
I0
sg9
I0
sa(dp907
g8
I0
sg9
I0
sa(dp908
g8
I0
sg9
I0
sa(dp909
g8
I0
sg9
I0
sa(dp910
g8
I0
sg9
I0
sa(dp911
g8
I0
sg9
I0
sa(dp912
g8
I0
sg9
I0
sa(dp913
g8
I0
sg9
I0
sa(dp914
g8
I0
sg9
I0
sa(dp915
g8
I0
sg9
I0
sa(dp916
g8
I0
sg9
I0
sa(dp917
g8
I0
sg9
I0
sa(dp918
g8
I0
sg9
I0
sa(dp919
g8
I0
sg9
I0
sa(dp920
g8
I0
sg9
I0
sa(dp921
g8
I0
sg9
I0
sa(dp922
g8
I0
sg9
I0
sa(dp923
g8
I0
sg9
I0
sa(dp924
g8
I0
sg9
I0
sa(dp925
g8
I0
sg9
I0
sa(dp926
g8
I0
sg9
I0
sa(dp927
g8
I0
sg9
I0
sa(dp928
g8
I0
sg9
I0
sa(dp929
g8
I0
sg9
I0
sa(dp930
g8
I0
sg9
I0
sa(dp931
g8
I0
sg9
I0
sa(dp932
g8
I0
sg9
I0
sa(dp933
g8
I0
sg9
I0
sa(dp934
g8
I0
sg9
I0
sa(dp935
g8
I0
sg9
I0
sa(dp936
g8
I0
sg9
I0
sa(dp937
g8
I0
sg9
I0
sa(dp938
g8
I0
sg9
I0
sa(dp939
g8
I0
sg9
I0
sa(dp940
g8
I0
sg9
I0
sa(dp941
g8
I0
sg9
I0
sa(dp942
g8
I0
sg9
I0
sa(dp943
g8
I0
sg9
I0
sa(dp944
g8
I0
sg9
I0
sa(dp945
g8
I0
sg9
I0
sa(dp946
g8
I0
sg9
I0
sa(dp947
g8
I0
sg9
I0
sa(dp948
g8
I0
sg9
I0
sa(dp949
g8
I0
sg9
I0
sa(dp950
g8
I0
sg9
I0
sa(dp951
g8
I0
sg9
I0
sa(dp952
g8
I0
sg9
I0
sa(dp953
g8
I0
sg9
I0
sa(dp954
g8
I0
sg9
I0
sa(dp955
g8
I0
sg9
I0
sa(dp956
g8
I0
sg9
I0
sa(dp957
g8
I0
sg9
I0
sa(dp958
g8
I0
sg9
I0
sa(dp959
g8
I0
sg9
I0
sa(dp960
g8
I0
sg9
I0
sa(dp961
g8
I0
sg9
I0
sa(dp962
g8
I0
sg9
I0
sa(dp963
g8
I0
sg9
I0
sa(dp964
g8
I0
sg9
I0
sa(dp965
g8
I0
sg9
I0
sa(dp966
g8
I0
sg9
I0
sa(dp967
g8
I0
sg9
I0
sa(dp968
g8
I0
sg9
I0
sa(dp969
g8
I0
sg9
I0
sa(dp970
g8
I0
sg9
I0
sa(dp971
g8
I0
sg9
I0
sa(dp972
g8
I0
sg9
I0
sa(dp973
g8
I0
sg9
I0
sa(dp974
g8
I0
sg9
I0
sa(dp975
g8
I0
sg9
I0
sa(dp976
g8
I0
sg9
I0
sa(dp977
g8
I0
sg9
I0
sa(dp978
g8
I0
sg9
I0
sa(dp979
g8
I0
sg9
I0
sa(dp980
g8
I0
sg9
I0
sa(dp981
g8
I0
sg9
I0
sa(dp982
g8
I0
sg9
I0
sa(dp983
g8
I0
sg9
I0
sa(dp984
g8
I0
sg9
I0
sa(dp985
g8
I0
sg9
I0
sa(dp986
g8
I0
sg9
I0
sa(dp987
g8
I0
sg9
I0
sa(dp988
g8
I0
sg9
I0
sa(dp989
g8
I0
sg9
I0
sa(dp990
g8
I0
sg9
I0
sa(dp991
g8
I0
sg9
I0
sa(dp992
g8
I0
sg9
I0
sa(dp993
g8
I0
sg9
I0
sa(dp994
g8
I0
sg9
I0
sa(dp995
g8
I0
sg9
I0
sa(dp996
g8
I0
sg9
I0
sa(dp997
g8
I0
sg9
I0
sa(dp998
g8
I0
sg9
I0
sa(dp999
g8
I0
sg9
I0
sa(dp1000
g8
I0
sg9
I0
sa(dp1001
g8
I0
sg9
I0
sa(dp1002
g8
I0
sg9
I0
sa(dp1003
g8
I0
sg9
I0
sa(dp1004
g8
I0
sg9
I0
sa(dp1005
g8
I0
sg9
I0
sa(dp1006
g8
I0
sg9
I0
sa(dp1007
g8
I0
sg9
I0
sa(dp1008
g8
I0
sg9
I0
sa(dp1009
g8
I0
sg9
I0
sa(dp1010
g8
I0
sg9
I0
sa(dp1011
g8
I0
sg9
I0
sa(dp1012
g8
I0
sg9
I0
sa(dp1013
g8
I0
sg9
I0
sa(dp1014
g8
I0
sg9
I0
sa(dp1015
g8
I0
sg9
I0
sa(dp1016
g8
I0
sg9
I0
sa(dp1017
g8
I0
sg9
I0
sa(dp1018
g8
I0
sg9
I0
sa(dp1019
g8
I0
sg9
I0
sa(dp1020
g8
I0
sg9
I0
sa(dp1021
g8
I0
sg9
I0
sa(dp1022
g8
I0
sg9
I0
sa(dp1023
g8
I0
sg9
I0
sa(dp1024
g8
I0
sg9
I0
sa(dp1025
g8
I0
sg9
I0
sa(dp1026
g8
I0
sg9
I0
sa(dp1027
g8
I0
sg9
I0
sa(dp1028
g8
I0
sg9
I0
sa(dp1029
g8
I0
sg9
I0
sa(dp1030
g8
I0
sg9
I0
sa(dp1031
g8
I0
sg9
I0
sa(dp1032
g8
I0
sg9
I0
sa(dp1033
g8
I0
sg9
I0
sa(dp1034
g8
I0
sg9
I0
sa(dp1035
g8
I0
sg9
I0
sa(dp1036
g8
I0
sg9
I0
sa(dp1037
g8
I0
sg9
I0
sa(dp1038
g8
I0
sg9
I0
sa(dp1039
g8
I0
sg9
I0
sa(dp1040
g8
I0
sg9
I0
sa(dp1041
g8
I0
sg9
I0
sa(dp1042
g8
I0
sg9
I0
sa(dp1043
g8
I0
sg9
I0
sa(dp1044
g8
I0
sg9
I0
sa(dp1045
g8
I0
sg9
I0
sa(dp1046
g8
I0
sg9
I0
sa(dp1047
g8
I0
sg9
I0
sa(dp1048
g8
I0
sg9
I0
sa(dp1049
g8
I0
sg9
I0
sa(dp1050
g8
I0
sg9
I0
sa(dp1051
g8
I0
sg9
I0
sa(dp1052
g8
I0
sg9
I0
sa(dp1053
g8
I0
sg9
I0
sa(dp1054
g8
I0
sg9
I0
sa(dp1055
g8
I0
sg9
I0
sa(dp1056
g8
I0
sg9
I0
sa(dp1057
g8
I0
sg9
I0
sa(dp1058
g8
I0
sg9
I0
sa(dp1059
g8
I0
sg9
I0
sa(dp1060
g8
I0
sg9
I0
sa(dp1061
g8
I0
sg9
I0
sa(dp1062
g8
I0
sg9
I0
sa(dp1063
g8
I0
sg9
I0
sa(dp1064
g8
I0
sg9
I0
sa(dp1065
g8
I0
sg9
I0
sa(dp1066
g8
I0
sg9
I0
sa(dp1067
g8
I0
sg9
I0
sa(dp1068
g8
I0
sg9
I0
sa(dp1069
g8
I0
sg9
I0
sa(dp1070
g8
I0
sg9
I0
sa(dp1071
g8
I0
sg9
I0
sa(dp1072
g8
I0
sg9
I0
sa(dp1073
g8
I0
sg9
I0
sa(dp1074
g8
I0
sg9
I0
sa(dp1075
g8
I0
sg9
I0
sa(dp1076
g8
I0
sg9
I0
sa(dp1077
g8
I0
sg9
I0
sa(dp1078
g8
I0
sg9
I0
sa(dp1079
g8
I0
sg9
I0
sa(dp1080
g8
I0
sg9
I0
sa(dp1081
g8
I0
sg9
I0
sa(dp1082
g8
I0
sg9
I0
sa(dp1083
g8
I0
sg9
I0
sa(dp1084
g8
I0
sg9
I0
sa(dp1085
g8
I0
sg9
I0
sa(dp1086
g8
I0
sg9
I0
sa(dp1087
g8
I0
sg9
I0
sa(dp1088
g8
I0
sg9
I0
sa(dp1089
g8
I0
sg9
I0
sa(dp1090
g8
I0
sg9
I0
sa(dp1091
g8
I0
sg9
I0
sa(dp1092
g8
I0
sg9
I0
sa(dp1093
g8
I0
sg9
I0
sa(dp1094
g8
I0
sg9
I0
sa(dp1095
g8
I0
sg9
I0
sa(dp1096
g8
I0
sg9
I0
sa(dp1097
g8
I0
sg9
I0
sa(dp1098
g8
I0
sg9
I0
sa(dp1099
g8
I0
sg9
I0
sa(dp1100
g8
I0
sg9
I0
sa(dp1101
g8
I0
sg9
I0
sa(dp1102
g8
I0
sg9
I0
sa(dp1103
g8
I0
sg9
I0
sa(dp1104
g8
I0
sg9
I0
sa(dp1105
g8
I0
sg9
I0
sa(dp1106
g8
I0
sg9
I0
sa(dp1107
g8
I0
sg9
I0
sa(dp1108
g8
I0
sg9
I0
sa(dp1109
g8
I0
sg9
I0
sa(dp1110
g8
I0
sg9
I0
sa(dp1111
g8
I0
sg9
I0
sa(dp1112
g8
I0
sg9
I0
sa(dp1113
g8
I0
sg9
I0
sa(dp1114
g8
I0
sg9
I0
sa(dp1115
g8
I0
sg9
I0
sa(dp1116
g8
I0
sg9
I0
sa(dp1117
g8
I0
sg9
I0
sa(dp1118
g8
I0
sg9
I0
sa(dp1119
g8
I0
sg9
I0
sa(dp1120
g8
I0
sg9
I0
sa(dp1121
g8
I0
sg9
I0
sa(dp1122
g8
I0
sg9
I0
sa(dp1123
g8
I0
sg9
I0
sa(dp1124
g8
I0
sg9
I0
sa(dp1125
g8
I0
sg9
I0
sa(dp1126
g8
I0
sg9
I0
sa(dp1127
g8
I0
sg9
I0
sa(dp1128
g8
I0
sg9
I0
sa(dp1129
g8
I0
sg9
I0
sa(dp1130
g8
I0
sg9
I0
sa(dp1131
g8
I0
sg9
I0
sa(dp1132
g8
I0
sg9
I0
sa(dp1133
g8
I0
sg9
I0
sa(dp1134
g8
I0
sg9
I0
sa(dp1135
g8
I0
sg9
I0
sa(dp1136
g8
I0
sg9
I0
sa(dp1137
g8
I0
sg9
I0
sa(dp1138
g8
I0
sg9
I0
sa(dp1139
g8
I0
sg9
I0
sa(dp1140
g8
I0
sg9
I0
sa(dp1141
g8
I0
sg9
I0
sa(dp1142
g8
I0
sg9
I0
sa(dp1143
g8
I0
sg9
I0
sa(dp1144
g8
I0
sg9
I0
sa(dp1145
g8
I0
sg9
I0
sa(dp1146
g8
I0
sg9
I0
sa(dp1147
g8
I0
sg9
I0
sa(dp1148
g8
I0
sg9
I0
sa(dp1149
g8
I0
sg9
I0
sa(dp1150
g8
I0
sg9
I0
sa(dp1151
g8
I0
sg9
I0
sa(dp1152
g8
I0
sg9
I0
sa(dp1153
g8
I0
sg9
I0
sa(dp1154
g8
I0
sg9
I0
sa(dp1155
g8
I0
sg9
I0
sa(dp1156
g8
I0
sg9
I0
sa(dp1157
g8
I0
sg9
I0
sa(dp1158
g8
I0
sg9
I0
sa(dp1159
g8
I0
sg9
I0
sa(dp1160
g8
I0
sg9
I0
sa(dp1161
g8
I0
sg9
I0
sa(dp1162
g8
I0
sg9
I0
sa(dp1163
g8
I0
sg9
I0
sa(dp1164
g8
I0
sg9
I0
sa(dp1165
g8
I0
sg9
I0
sa(dp1166
g8
I0
sg9
I0
sa(dp1167
g8
I0
sg9
I0
sa(dp1168
g8
I0
sg9
I0
sa(dp1169
g8
I0
sg9
I0
sa(dp1170
g8
I0
sg9
I0
sa(dp1171
g8
I0
sg9
I0
sa(dp1172
g8
I0
sg9
I0
sa(dp1173
g8
I0
sg9
I0
sa(dp1174
g8
I0
sg9
I0
sa(dp1175
g8
I0
sg9
I0
sa(dp1176
g8
I0
sg9
I0
sa(dp1177
g8
I0
sg9
I0
sa(dp1178
g8
I0
sg9
I0
sa(dp1179
g8
I0
sg9
I0
sa(dp1180
g8
I0
sg9
I0
sa(dp1181
g8
I0
sg9
I0
sa(dp1182
g8
I0
sg9
I0
sa(dp1183
g8
I0
sg9
I0
sa(dp1184
g8
I0
sg9
I0
sa(dp1185
g8
I0
sg9
I0
sa(dp1186
g8
I0
sg9
I0
sa(dp1187
g8
I0
sg9
I0
sa(dp1188
g8
I0
sg9
I0
sa(dp1189
g8
I0
sg9
I0
sa(dp1190
g8
I0
sg9
I0
sa(dp1191
g8
I0
sg9
I0
sa(dp1192
g8
I0
sg9
I0
sa(dp1193
g8
I0
sg9
I0
sa(dp1194
g8
I0
sg9
I0
sa(dp1195
g8
I0
sg9
I0
sa(dp1196
g8
I0
sg9
I0
sa(dp1197
g8
I0
sg9
I0
sa(dp1198
g8
I0
sg9
I0
sa(dp1199
g8
I0
sg9
I0
sa(dp1200
g8
I0
sg9
I0
sa(dp1201
g8
I0
sg9
I0
sa(dp1202
g8
I0
sg9
I0
sa(dp1203
g8
I0
sg9
I0
sa(dp1204
g8
I0
sg9
I0
sa(dp1205
g8
I0
sg9
I0
sa(dp1206
g8
I0
sg9
I0
sa(dp1207
g8
I0
sg9
I0
sa(dp1208
g8
I0
sg9
I0
sa(dp1209
g8
I0
sg9
I0
sa(dp1210
g8
I0
sg9
I0
sa(dp1211
g8
I0
sg9
I0
sa(dp1212
g8
I0
sg9
I0
sa(dp1213
g8
I0
sg9
I0
sa(dp1214
g8
I0
sg9
I0
sa(dp1215
g8
I0
sg9
I0
sa(dp1216
g8
I0
sg9
I0
sa(dp1217
g8
I0
sg9
I0
sa(dp1218
g8
I0
sg9
I0
sa(dp1219
g8
I0
sg9
I0
sa(dp1220
g8
I0
sg9
I0
sa(dp1221
g8
I0
sg9
I0
sa(dp1222
g8
I0
sg9
I0
sa(dp1223
g8
I0
sg9
I0
sa(dp1224
g8
I0
sg9
I0
sa(dp1225
g8
I0
sg9
I0
sa(dp1226
g8
I0
sg9
I0
sa(dp1227
g8
I0
sg9
I0
sa(dp1228
g8
I0
sg9
I0
sa(dp1229
g8
I0
sg9
I0
sa(dp1230
g8
I0
sg9
I0
sa(dp1231
g8
I0
sg9
I0
sa(dp1232
g8
I0
sg9
I0
sa(dp1233
g8
I0
sg9
I0
sa(dp1234
g8
I0
sg9
I0
sa(dp1235
g8
I0
sg9
I0
sa(dp1236
g8
I0
sg9
I0
sa(dp1237
g8
I0
sg9
I0
sa(dp1238
g8
I0
sg9
I0
sa(dp1239
g8
I0
sg9
I0
sa(dp1240
g8
I0
sg9
I0
sa(dp1241
g8
I0
sg9
I0
sa(dp1242
g8
I0
sg9
I0
sa(dp1243
g8
I0
sg9
I0
sa(dp1244
g8
I0
sg9
I0
sa(dp1245
g8
I0
sg9
I0
sa(dp1246
g8
I0
sg9
I0
sa(dp1247
g8
I0
sg9
I0
sa(dp1248
g8
I0
sg9
I0
sa(dp1249
g8
I0
sg9
I0
sa(dp1250
g8
I0
sg9
I0
sa(dp1251
g8
I0
sg9
I0
sa(dp1252
g8
I0
sg9
I0
sa(dp1253
g8
I0
sg9
I0
sa(dp1254
g8
I0
sg9
I0
sa(dp1255
g8
I0
sg9
I0
sa(dp1256
g8
I0
sg9
I0
sa(dp1257
g8
I0
sg9
I0
sa(dp1258
g8
I0
sg9
I0
sa(dp1259
g8
I0
sg9
I0
sa(dp1260
g8
I0
sg9
I0
sa(dp1261
g8
I0
sg9
I0
sa(dp1262
g8
I0
sg9
I0
sa(dp1263
g8
I0
sg9
I0
sa(dp1264
g8
I0
sg9
I0
sa(dp1265
g8
I0
sg9
I0
sa(dp1266
g8
I0
sg9
I0
sa(dp1267
g8
I0
sg9
I0
sa(dp1268
g8
I0
sg9
I0
sa(dp1269
g8
I0
sg9
I0
sa(dp1270
g8
I0
sg9
I0
sa(dp1271
g8
I0
sg9
I0
sa(dp1272
g8
I0
sg9
I0
sa(dp1273
g8
I0
sg9
I0
sa(dp1274
g8
I0
sg9
I0
sa(dp1275
g8
I0
sg9
I0
sa(dp1276
g8
I0
sg9
I0
sa(dp1277
g8
I0
sg9
I0
sa(dp1278
g8
I0
sg9
I0
sa(dp1279
g8
I0
sg9
I0
sa(dp1280
g8
I0
sg9
I0
sa(dp1281
g8
I0
sg9
I0
sa(dp1282
g8
I0
sg9
I0
sa(dp1283
g8
I0
sg9
I0
sa(dp1284
g8
I0
sg9
I0
sa(dp1285
g8
I0
sg9
I0
sa(dp1286
g8
I0
sg9
I0
sa(dp1287
g8
I0
sg9
I0
sa(dp1288
g8
I0
sg9
I0
sa(dp1289
g8
I0
sg9
I0
sa(dp1290
g8
I0
sg9
I0
sa(dp1291
g8
I0
sg9
I0
sa(dp1292
g8
I0
sg9
I0
sa(dp1293
g8
I0
sg9
I0
sa(dp1294
g8
I0
sg9
I0
sa(dp1295
g8
I0
sg9
I0
sa(dp1296
g8
I0
sg9
I0
sa(dp1297
g8
I0
sg9
I0
sa(dp1298
g8
I0
sg9
I0
sa(dp1299
g8
I0
sg9
I0
sa(dp1300
g8
I0
sg9
I0
sa(dp1301
g8
I0
sg9
I0
sa(dp1302
g8
I0
sg9
I0
sa(dp1303
g8
I0
sg9
I0
sa(dp1304
g8
I0
sg9
I0
sa(dp1305
g8
I0
sg9
I0
sa(dp1306
g8
I0
sg9
I0
sa(dp1307
g8
I0
sg9
I0
sa(dp1308
g8
I0
sg9
I0
sa(dp1309
g8
I0
sg9
I0
sa(dp1310
g8
I0
sg9
I0
sa(dp1311
g8
I0
sg9
I0
sa(dp1312
g8
I0
sg9
I0
sa(dp1313
g8
I0
sg9
I0
sa(dp1314
g8
I0
sg9
I0
sa(dp1315
g8
I0
sg9
I0
sa(dp1316
g8
I0
sg9
I0
sa(dp1317
g8
I0
sg9
I0
sa(dp1318
g8
I0
sg9
I0
sa(dp1319
g8
I0
sg9
I0
sa(dp1320
g8
I0
sg9
I0
sa(dp1321
g8
I0
sg9
I0
sa(dp1322
g8
I0
sg9
I0
sa(dp1323
g8
I0
sg9
I0
sa(dp1324
g8
I0
sg9
I0
sa(dp1325
g8
I0
sg9
I0
sa(dp1326
g8
I0
sg9
I0
sa(dp1327
g8
I0
sg9
I0
sa(dp1328
g8
I0
sg9
I0
sa(dp1329
g8
I0
sg9
I0
sa(dp1330
g8
I0
sg9
I0
sa(dp1331
g8
I0
sg9
I0
sa(dp1332
g8
I0
sg9
I0
sa(dp1333
g8
I0
sg9
I0
sa(dp1334
g8
I0
sg9
I0
sa(dp1335
g8
I0
sg9
I0
sa(dp1336
g8
I0
sg9
I0
sa(dp1337
g8
I0
sg9
I0
sa(dp1338
g8
I0
sg9
I0
sa(dp1339
g8
I0
sg9
I0
sa(dp1340
g8
I0
sg9
I0
sa(dp1341
g8
I0
sg9
I0
sa(dp1342
g8
I0
sg9
I0
sa(dp1343
g8
I0
sg9
I0
sa(dp1344
g8
I0
sg9
I0
sa(dp1345
g8
I0
sg9
I0
sa(dp1346
g8
I0
sg9
I0
sa(dp1347
g8
I0
sg9
I0
sa(dp1348
g8
I0
sg9
I0
sa(dp1349
g8
I0
sg9
I0
sa(dp1350
g8
I0
sg9
I0
sa(dp1351
g8
I0
sg9
I0
sa(dp1352
g8
I0
sg9
I0
sa(dp1353
g8
I0
sg9
I0
sa(dp1354
g8
I0
sg9
I0
sa(dp1355
g8
I0
sg9
I0
sa(dp1356
g8
I0
sg9
I0
sa(dp1357
g8
I0
sg9
I0
sa(dp1358
g8
I0
sg9
I0
sa(dp1359
g8
I0
sg9
I0
sa(dp1360
g8
I0
sg9
I0
sa(dp1361
g8
I0
sg9
I0
sa(dp1362
g8
I0
sg9
I0
sa(dp1363
g8
I0
sg9
I0
sa(dp1364
g8
I0
sg9
I0
sa(dp1365
g8
I0
sg9
I0
sa(dp1366
g8
I0
sg9
I0
sa(dp1367
g8
I0
sg9
I0
sa(dp1368
g8
I0
sg9
I0
sa(dp1369
g8
I0
sg9
I0
sa(dp1370
g8
I0
sg9
I0
sa(dp1371
g8
I0
sg9
I0
sa(dp1372
g8
I0
sg9
I0
sa(dp1373
g8
I0
sg9
I0
sa(dp1374
g8
I0
sg9
I0
sa(dp1375
g8
I0
sg9
I0
sa(dp1376
g8
I0
sg9
I0
sa(dp1377
g8
I0
sg9
I0
sa(dp1378
g8
I0
sg9
I0
sa(dp1379
g8
I0
sg9
I0
sa(dp1380
g8
I0
sg9
I0
sa(dp1381
g8
I0
sg9
I0
sa(dp1382
g8
I0
sg9
I0
sa(dp1383
g8
I0
sg9
I0
sa(dp1384
g8
I0
sg9
I0
sa(dp1385
g8
I0
sg9
I0
sa(dp1386
g8
I0
sg9
I0
sa(dp1387
g8
I0
sg9
I0
sa(dp1388
g8
I0
sg9
I0
sa(dp1389
g8
I0
sg9
I0
sa(dp1390
g8
I0
sg9
I0
sa(dp1391
g8
I0
sg9
I0
sa(dp1392
g8
I0
sg9
I0
sa(dp1393
g8
I0
sg9
I0
sa(dp1394
g8
I0
sg9
I0
sa(dp1395
g8
I0
sg9
I0
sa(dp1396
g8
I0
sg9
I0
sa(dp1397
g8
I0
sg9
I0
sa(dp1398
g8
I0
sg9
I0
sa(dp1399
g8
I0
sg9
I0
sa(dp1400
g8
I0
sg9
I0
sa(dp1401
g8
I0
sg9
I0
sa(dp1402
g8
I0
sg9
I0
sa(dp1403
g8
I0
sg9
I0
sa(dp1404
g8
I0
sg9
I0
sa(dp1405
g8
I0
sg9
I0
sa(dp1406
g8
I0
sg9
I0
sa(dp1407
g8
I0
sg9
I0
sa(dp1408
g8
I0
sg9
I0
sa(dp1409
g8
I0
sg9
I0
sa(dp1410
g8
I0
sg9
I0
sa(dp1411
g8
I0
sg9
I0
sa(dp1412
g8
I0
sg9
I0
sa(dp1413
g8
I0
sg9
I0
sa(dp1414
g8
I0
sg9
I0
sa(dp1415
g8
I0
sg9
I0
sa(dp1416
g8
I0
sg9
I0
sa(dp1417
g8
I0
sg9
I0
sa(dp1418
g8
I0
sg9
I0
sa(dp1419
g8
I0
sg9
I0
sa(dp1420
g8
I0
sg9
I0
sa(dp1421
g8
I0
sg9
I0
sa(dp1422
g8
I0
sg9
I0
sa(dp1423
g8
I0
sg9
I0
sa(dp1424
g8
I0
sg9
I0
sa(dp1425
g8
I0
sg9
I0
sa(dp1426
g8
I0
sg9
I0
sa(dp1427
g8
I0
sg9
I0
sa(dp1428
g8
I0
sg9
I0
sa(dp1429
g8
I0
sg9
I0
sa(dp1430
g8
I0
sg9
I0
sa(dp1431
g8
I0
sg9
I0
sa(dp1432
g8
I0
sg9
I0
sa(dp1433
g8
I0
sg9
I0
sa(dp1434
g8
I0
sg9
I0
sa(dp1435
g8
I0
sg9
I0
sa(dp1436
g8
I0
sg9
I0
sa(dp1437
g8
I0
sg9
I0
sa(dp1438
g8
I0
sg9
I0
sa(dp1439
g8
I0
sg9
I0
sa(dp1440
g8
I0
sg9
I0
sa(dp1441
g8
I0
sg9
I0
sa(dp1442
g8
I0
sg9
I0
sa(dp1443
g8
I0
sg9
I0
sa(dp1444
g8
I0
sg9
I0
sa(dp1445
g8
I0
sg9
I0
sa(dp1446
g8
I0
sg9
I0
sa(dp1447
g8
I0
sg9
I0
sa(dp1448
g8
I0
sg9
I0
sa(dp1449
g8
I0
sg9
I0
sa(dp1450
g8
I0
sg9
I0
sa(dp1451
g8
I0
sg9
I0
sa(dp1452
g8
I0
sg9
I0
sa(dp1453
g8
I0
sg9
I0
sa(dp1454
g8
I0
sg9
I0
sa(dp1455
g8
I0
sg9
I0
sa(dp1456
g8
I0
sg9
I0
sa(dp1457
g8
I0
sg9
I0
sa(dp1458
g8
I0
sg9
I0
sa(dp1459
g8
I0
sg9
I0
sa(dp1460
g8
I0
sg9
I0
sa(dp1461
g8
I0
sg9
I0
sa(dp1462
g8
I0
sg9
I0
sa(dp1463
g8
I0
sg9
I0
sa(dp1464
g8
I0
sg9
I0
sa(dp1465
g8
I0
sg9
I0
sa(dp1466
g8
I0
sg9
I0
sa(dp1467
g8
I0
sg9
I0
sa(dp1468
g8
I0
sg9
I0
sa(dp1469
g8
I0
sg9
I0
sa(dp1470
g8
I0
sg9
I0
sa(dp1471
g8
I0
sg9
I0
sa(dp1472
g8
I0
sg9
I0
sa(dp1473
g8
I0
sg9
I0
sa(dp1474
g8
I0
sg9
I0
sa(dp1475
g8
I0
sg9
I0
sa(dp1476
g8
I0
sg9
I0
sa(dp1477
g8
I0
sg9
I0
sa(dp1478
g8
I0
sg9
I0
sa(dp1479
g8
I0
sg9
I0
sa(dp1480
g8
I0
sg9
I0
sa(dp1481
g8
I0
sg9
I0
sa(dp1482
g8
I0
sg9
I0
sa(dp1483
g8
I0
sg9
I0
sa(dp1484
g8
I0
sg9
I0
sa(dp1485
g8
I0
sg9
I0
sa(dp1486
g8
I0
sg9
I0
sa(dp1487
g8
I0
sg9
I0
sa(dp1488
g8
I0
sg9
I0
sa(dp1489
g8
I0
sg9
I0
sa(dp1490
g8
I0
sg9
I0
sa(dp1491
g8
I0
sg9
I0
sa(dp1492
g8
I0
sg9
I0
sa(dp1493
g8
I0
sg9
I0
sa(dp1494
g8
I0
sg9
I0
sa(dp1495
g8
I0
sg9
I0
sa(dp1496
g8
I0
sg9
I0
sa(dp1497
g8
I0
sg9
I0
sa(dp1498
g8
I0
sg9
I0
sa(dp1499
g8
I0
sg9
I0
sa(dp1500
g8
I0
sg9
I0
sa(dp1501
g8
I0
sg9
I0
sa(dp1502
g8
I0
sg9
I0
sa(dp1503
g8
I0
sg9
I0
sa(dp1504
g8
I0
sg9
I0
sa(dp1505
g8
I0
sg9
I0
sa(dp1506
g8
I0
sg9
I0
sa(dp1507
g8
I0
sg9
I0
sa(dp1508
g8
I0
sg9
I0
sa(dp1509
g8
I0
sg9
I0
sa(dp1510
g8
I0
sg9
I0
sa(dp1511
g8
I0
sg9
I0
sa(dp1512
g8
I0
sg9
I0
sa(dp1513
g8
I0
sg9
I0
sa(dp1514
g8
I0
sg9
I0
sa(dp1515
g8
I0
sg9
I0
sa(dp1516
g8
I0
sg9
I0
sa(dp1517
g8
I0
sg9
I0
sa(dp1518
g8
I0
sg9
I0
sa(dp1519
g8
I0
sg9
I0
sa(dp1520
g8
I0
sg9
I0
sa(dp1521
g8
I0
sg9
I0
sa(dp1522
g8
I0
sg9
I0
sa(dp1523
g8
I0
sg9
I0
sa(dp1524
g8
I0
sg9
I0
sa(dp1525
g8
I0
sg9
I0
sa(dp1526
g8
I0
sg9
I0
sa(dp1527
g8
I0
sg9
I0
sa(dp1528
g8
I0
sg9
I0
sa(dp1529
g8
I0
sg9
I0
sa(dp1530
g8
I0
sg9
I0
sa(dp1531
g8
I0
sg9
I0
sa(dp1532
g8
I0
sg9
I0
sa(dp1533
g8
I0
sg9
I0
sa(dp1534
g8
I0
sg9
I0
sa(dp1535
g8
I0
sg9
I0
sa(dp1536
g8
I0
sg9
I0
sa(dp1537
g8
I0
sg9
I0
sa(dp1538
g8
I0
sg9
I0
sa(dp1539
g8
I0
sg9
I0
sa(dp1540
g8
I0
sg9
I0
sa(dp1541
g8
I0
sg9
I0
sa(dp1542
g8
I0
sg9
I0
sa(dp1543
g8
I0
sg9
I0
sa(dp1544
g8
I0
sg9
I0
sa(dp1545
g8
I0
sg9
I0
sa(dp1546
g8
I0
sg9
I0
sa(dp1547
g8
I0
sg9
I0
sa(dp1548
g8
I0
sg9
I0
sa(dp1549
g8
I0
sg9
I0
sa(dp1550
g8
I0
sg9
I0
sa(dp1551
g8
I0
sg9
I0
sa(dp1552
g8
I0
sg9
I0
sa(dp1553
g8
I0
sg9
I0
sa(dp1554
g8
I0
sg9
I0
sa(dp1555
g8
I0
sg9
I0
sa(dp1556
g8
I0
sg9
I0
sa(dp1557
g8
I0
sg9
I0
sa(dp1558
g8
I0
sg9
I0
sa(dp1559
g8
I0
sg9
I0
sa(dp1560
g8
I0
sg9
I0
sa(dp1561
g8
I0
sg9
I0
sa(dp1562
g8
I0
sg9
I0
sa(dp1563
g8
I0
sg9
I0
sa(dp1564
g8
I0
sg9
I0
sa(dp1565
g8
I0
sg9
I0
sa(dp1566
g8
I0
sg9
I0
sa(dp1567
g8
I0
sg9
I0
sa(dp1568
g8
I0
sg9
I0
sa(dp1569
g8
I0
sg9
I0
sa(dp1570
g8
I0
sg9
I0
sa(dp1571
g8
I0
sg9
I0
sa(dp1572
g8
I0
sg9
I0
sa(dp1573
g8
I0
sg9
I0
sa(dp1574
g8
I0
sg9
I0
sa(dp1575
g8
I0
sg9
I0
sa(dp1576
g8
I0
sg9
I0
sa(dp1577
g8
I0
sg9
I0
sa(dp1578
g8
I0
sg9
I0
sa(dp1579
g8
I0
sg9
I0
sa(dp1580
g8
I0
sg9
I0
sa(dp1581
g8
I0
sg9
I0
sa(dp1582
g8
I0
sg9
I0
sa(dp1583
g8
I0
sg9
I0
sa(dp1584
g8
I0
sg9
I0
sa(dp1585
g8
I0
sg9
I0
sa(dp1586
g8
I0
sg9
I0
sa(dp1587
g8
I0
sg9
I0
sa(dp1588
g8
I0
sg9
I0
sa(dp1589
g8
I0
sg9
I0
sa(dp1590
g8
I0
sg9
I0
sa(dp1591
g8
I0
sg9
I0
sa(dp1592
g8
I0
sg9
I0
sa(dp1593
g8
I0
sg9
I0
sa(dp1594
g8
I0
sg9
I0
sa(dp1595
g8
I0
sg9
I0
sa(dp1596
g8
I0
sg9
I0
sa(dp1597
g8
I0
sg9
I0
sa(dp1598
g8
I0
sg9
I0
sa(dp1599
g8
I0
sg9
I0
sa(dp1600
g8
I0
sg9
I0
sa(dp1601
g8
I0
sg9
I0
sa(dp1602
g8
I0
sg9
I0
sa(dp1603
g8
I0
sg9
I0
sa(dp1604
g8
I0
sg9
I0
sa(dp1605
g8
I0
sg9
I0
sa(dp1606
g8
I0
sg9
I0
sa(dp1607
g8
I0
sg9
I0
sa(dp1608
g8
I0
sg9
I0
sa(dp1609
g8
I0
sg9
I0
sa(dp1610
g8
I0
sg9
I0
sa(dp1611
g8
I0
sg9
I0
sa(dp1612
g8
I0
sg9
I0
sa(dp1613
g8
I0
sg9
I0
sa(dp1614
g8
I0
sg9
I0
sa(dp1615
g8
I0
sg9
I0
sa(dp1616
g8
I0
sg9
I0
sa(dp1617
g8
I0
sg9
I0
sa(dp1618
g8
I0
sg9
I0
sa(dp1619
g8
I0
sg9
I0
sa(dp1620
g8
I0
sg9
I0
sa(dp1621
g8
I0
sg9
I0
sa(dp1622
g8
I0
sg9
I0
sa(dp1623
g8
I0
sg9
I0
sa(dp1624
g8
I0
sg9
I0
sa(dp1625
g8
I0
sg9
I0
sa(dp1626
g8
I0
sg9
I0
sa(dp1627
g8
I0
sg9
I0
sa(dp1628
g8
I0
sg9
I0
sa(dp1629
g8
I0
sg9
I0
sa(dp1630
g8
I0
sg9
I0
sa(dp1631
g8
I0
sg9
I0
sa(dp1632
g8
I0
sg9
I0
sa(dp1633
g8
I0
sg9
I0
sa(dp1634
g8
I0
sg9
I0
sa(dp1635
g8
I0
sg9
I0
sa(dp1636
g8
I0
sg9
I0
sa(dp1637
g8
I0
sg9
I0
sa(dp1638
g8
I0
sg9
I0
sa(dp1639
g8
I0
sg9
I0
sa(dp1640
g8
I0
sg9
I0
sa(dp1641
g8
I0
sg9
I0
sa(dp1642
g8
I0
sg9
I0
sa(dp1643
g8
I0
sg9
I0
sa(dp1644
g8
I0
sg9
I0
sa(dp1645
g8
I0
sg9
I0
sa(dp1646
g8
I0
sg9
I0
sa(dp1647
g8
I0
sg9
I0
sa(dp1648
g8
I0
sg9
I0
sa(dp1649
g8
I0
sg9
I0
sa(dp1650
g8
I0
sg9
I0
sa(dp1651
g8
I0
sg9
I0
sa(dp1652
g8
I0
sg9
I0
sa(dp1653
g8
I0
sg9
I0
sa(dp1654
g8
I0
sg9
I0
sa(dp1655
g8
I0
sg9
I0
sa(dp1656
g8
I0
sg9
I0
sa(dp1657
g8
I0
sg9
I0
sa(dp1658
g8
I0
sg9
I0
sa(dp1659
g8
I0
sg9
I0
sa(dp1660
g8
I0
sg9
I0
sa(dp1661
g8
I0
sg9
I0
sa(dp1662
g8
I0
sg9
I0
sa(dp1663
g8
I0
sg9
I0
sa(dp1664
g8
I0
sg9
I0
sa(dp1665
g8
I0
sg9
I0
sa(dp1666
g8
I0
sg9
I0
sa(dp1667
g8
I0
sg9
I0
sa(dp1668
g8
I0
sg9
I0
sa(dp1669
g8
I0
sg9
I0
sa(dp1670
g8
I0
sg9
I0
sa(dp1671
g8
I0
sg9
I0
sa(dp1672
g8
I0
sg9
I0
sa(dp1673
g8
I0
sg9
I0
sa(dp1674
g8
I0
sg9
I0
sa(dp1675
g8
I0
sg9
I0
sa(dp1676
g8
I0
sg9
I0
sa(dp1677
g8
I0
sg9
I0
sa(dp1678
g8
I0
sg9
I0
sa(dp1679
g8
I0
sg9
I0
sa(dp1680
g8
I0
sg9
I0
sa(dp1681
g8
I0
sg9
I0
sa(dp1682
g8
I0
sg9
I0
sa(dp1683
g8
I0
sg9
I0
sa(dp1684
g8
I0
sg9
I0
sa(dp1685
g8
I0
sg9
I0
sa(dp1686
g8
I0
sg9
I0
sa(dp1687
g8
I0
sg9
I0
sa(dp1688
g8
I0
sg9
I0
sa(dp1689
g8
I0
sg9
I0
sa(dp1690
g8
I0
sg9
I0
sa(dp1691
g8
I0
sg9
I0
sa(dp1692
g8
I0
sg9
I0
sa(dp1693
g8
I0
sg9
I0
sa(dp1694
g8
I0
sg9
I0
sa(dp1695
g8
I0
sg9
I0
sa(dp1696
g8
I0
sg9
I0
sa(dp1697
g8
I0
sg9
I0
sa(dp1698
g8
I0
sg9
I0
sa(dp1699
g8
I0
sg9
I0
sa(dp1700
g8
I0
sg9
I0
sa(dp1701
g8
I0
sg9
I0
sa(dp1702
g8
I0
sg9
I0
sa(dp1703
g8
I0
sg9
I0
sa(dp1704
g8
I0
sg9
I0
sa(dp1705
g8
I0
sg9
I0
sa(dp1706
g8
I0
sg9
I0
sa(dp1707
g8
I0
sg9
I0
sa(dp1708
g8
I0
sg9
I0
sa(dp1709
g8
I0
sg9
I0
sa(dp1710
g8
I0
sg9
I0
sa(dp1711
g8
I0
sg9
I0
sa(dp1712
g8
I0
sg9
I0
sa(dp1713
g8
I0
sg9
I0
sa(dp1714
g8
I0
sg9
I0
sa(dp1715
g8
I0
sg9
I0
sa(dp1716
g8
I0
sg9
I0
sa(dp1717
g8
I0
sg9
I0
sa(dp1718
g8
I0
sg9
I0
sa(dp1719
g8
I0
sg9
I0
sa(dp1720
g8
I0
sg9
I0
sa(dp1721
g8
I0
sg9
I0
sa(dp1722
g8
I0
sg9
I0
sa(dp1723
g8
I0
sg9
I0
sa(dp1724
g8
I0
sg9
I0
sa(dp1725
g8
I0
sg9
I0
sa(dp1726
g8
I0
sg9
I0
sa(dp1727
g8
I0
sg9
I0
sa(dp1728
g8
I0
sg9
I0
sa(dp1729
g8
I0
sg9
I0
sa(dp1730
g8
I0
sg9
I0
sa(dp1731
g8
I0
sg9
I0
sa(dp1732
g8
I0
sg9
I0
sa(dp1733
g8
I0
sg9
I0
sa(dp1734
g8
I0
sg9
I0
sa(dp1735
g8
I0
sg9
I0
sa(dp1736
g8
I0
sg9
I0
sa(dp1737
g8
I0
sg9
I0
sa(dp1738
g8
I0
sg9
I0
sa(dp1739
g8
I0
sg9
I0
sa(dp1740
g8
I0
sg9
I0
sa(dp1741
g8
I0
sg9
I0
sa(dp1742
g8
I0
sg9
I0
sa(dp1743
g8
I0
sg9
I0
sa(dp1744
g8
I0
sg9
I0
sa(dp1745
g8
I0
sg9
I0
sa(dp1746
g8
I0
sg9
I0
sa(dp1747
g8
I0
sg9
I0
sa(dp1748
g8
I0
sg9
I0
sa(dp1749
g8
I0
sg9
I0
sa(dp1750
g8
I0
sg9
I0
sa(dp1751
g8
I0
sg9
I0
sa(dp1752
g8
I0
sg9
I0
sa(dp1753
g8
I0
sg9
I0
sa(dp1754
g8
I0
sg9
I0
sa(dp1755
g8
I0
sg9
I0
sa(dp1756
g8
I0
sg9
I0
sa(dp1757
g8
I0
sg9
I0
sa(dp1758
g8
I0
sg9
I0
sa(dp1759
g8
I0
sg9
I0
sa(dp1760
g8
I0
sg9
I0
sa(dp1761
g8
I0
sg9
I0
sa(dp1762
g8
I0
sg9
I0
sa(dp1763
g8
I0
sg9
I0
sa(dp1764
g8
I0
sg9
I0
sa(dp1765
g8
I0
sg9
I0
sa(dp1766
g8
I0
sg9
I0
sa(dp1767
g8
I0
sg9
I0
sa(dp1768
g8
I0
sg9
I0
sa(dp1769
g8
I0
sg9
I0
sa(dp1770
g8
I0
sg9
I0
sa(dp1771
g8
I0
sg9
I0
sa(dp1772
g8
I0
sg9
I0
sa(dp1773
g8
I0
sg9
I0
sa(dp1774
g8
I0
sg9
I0
sa(dp1775
g8
I0
sg9
I0
sa(dp1776
g8
I0
sg9
I0
sa(dp1777
g8
I0
sg9
I0
sa(dp1778
g8
I0
sg9
I0
sa(dp1779
g8
I0
sg9
I0
sa(dp1780
g8
I0
sg9
I0
sa(dp1781
g8
I0
sg9
I0
sa(dp1782
g8
I0
sg9
I0
sa(dp1783
g8
I0
sg9
I0
sa(dp1784
g8
I0
sg9
I0
sa(dp1785
g8
I0
sg9
I0
sa(dp1786
g8
I0
sg9
I0
sa(dp1787
g8
I0
sg9
I0
sa(dp1788
g8
I0
sg9
I0
sa(dp1789
g8
I0
sg9
I0
sa(dp1790
g8
I0
sg9
I0
sa(dp1791
g8
I0
sg9
I0
sa(dp1792
g8
I0
sg9
I0
sa(dp1793
g8
I0
sg9
I0
sa(dp1794
g8
I0
sg9
I0
sa(dp1795
g8
I0
sg9
I0
sa(dp1796
g8
I0
sg9
I0
sa(dp1797
g8
I0
sg9
I0
sa(dp1798
g8
I0
sg9
I0
sa(dp1799
g8
I0
sg9
I0
sa(dp1800
g8
I0
sg9
I0
sa(dp1801
g8
I0
sg9
I0
sa(dp1802
g8
I0
sg9
I0
sa(dp1803
g8
I0
sg9
I0
sa(dp1804
g8
I0
sg9
I0
sa(dp1805
g8
I0
sg9
I0
sa(dp1806
g8
I0
sg9
I0
sa(dp1807
g8
I0
sg9
I0
sa(dp1808
g8
I0
sg9
I0
satb.